target datalayout = "e-m:e-p270:32:32-p271:32:32-p272:64:64-i64:64-i128:128-f80:128-n8:16:32:64-S128"
target triple = "x86_64-pc-linux-gnu"

%struct.H5D_chunk_rec_t = type { [33 x i64], i32, i32, i64 }
%struct.H5D_bt2_ctx_t = type { i32, i64, i64, i32, ptr }

; Function Attrs: nounwind uwtable
define internal i32 @H5D__bt2_filt_decode(ptr noundef %0, ptr noundef %1, ptr noundef %2) #0 {
  %4 = alloca ptr, align 8
  %5 = alloca ptr, align 8
  %6 = alloca ptr, align 8
  %7 = alloca ptr, align 8
  %8 = alloca ptr, align 8
  %9 = alloca i32, align 4
  %10 = alloca i64, align 8
  %11 = alloca i64, align 8
  store ptr %0, ptr %4, align 8
  store ptr %1, ptr %5, align 8
  store ptr %2, ptr %6, align 8
  %12 = load ptr, ptr %6, align 8
  store ptr %12, ptr %7, align 8
  %13 = load ptr, ptr %5, align 8
  store ptr %13, ptr %8, align 8
  %14 = load ptr, ptr %7, align 8
  %15 = getelementptr inbounds %struct.H5D_bt2_ctx_t, ptr %14, i32 0, i32 1
  %16 = load i64, ptr %15, align 8
  %17 = load ptr, ptr %8, align 8
  %18 = getelementptr inbounds %struct.H5D_chunk_rec_t, ptr %17, i32 0, i32 3
  call void @H5F_addr_decode_len(i64 noundef %16, ptr noundef %4, ptr noundef %18)
  br label %19

19:                                               ; preds = %3
  %20 = load ptr, ptr %8, align 8
  %21 = getelementptr inbounds %struct.H5D_chunk_rec_t, ptr %20, i32 0, i32 1
  store i32 0, ptr %21, align 8
  %22 = load ptr, ptr %7, align 8
  %23 = getelementptr inbounds %struct.H5D_bt2_ctx_t, ptr %22, i32 0, i32 2
  %24 = load i64, ptr %23, align 8
  %25 = load ptr, ptr %4, align 8
  %26 = getelementptr inbounds i8, ptr %25, i64 %24
  store ptr %26, ptr %4, align 8
  store i64 0, ptr %10, align 8
  br label %27

27:                                               ; preds = %45, %19
  %28 = load i64, ptr %10, align 8
  %29 = load ptr, ptr %7, align 8
  %30 = getelementptr inbounds %struct.H5D_bt2_ctx_t, ptr %29, i32 0, i32 2
  %31 = load i64, ptr %30, align 8
  %32 = icmp ult i64 %28, %31
  br i1 %32, label %33, label %48

33:                                               ; preds = %27
  %34 = load ptr, ptr %8, align 8
  %35 = getelementptr inbounds %struct.H5D_chunk_rec_t, ptr %34, i32 0, i32 1
  %36 = load i32, ptr %35, align 8
  %37 = shl i32 %36, 8
  %38 = load ptr, ptr %4, align 8
  %39 = getelementptr inbounds i8, ptr %38, i32 -1
  store ptr %39, ptr %4, align 8
  %40 = load i8, ptr %39, align 1
  %41 = zext i8 %40 to i32
  %42 = or i32 %37, %41
  %43 = load ptr, ptr %8, align 8
  %44 = getelementptr inbounds %struct.H5D_chunk_rec_t, ptr %43, i32 0, i32 1
  store i32 %42, ptr %44, align 8
  br label %45

45:                                               ; preds = %33
  %46 = load i64, ptr %10, align 8
  %47 = add i64 %46, 1
  store i64 %47, ptr %10, align 8
  br label %27

48:                                               ; preds = %27
  %49 = load ptr, ptr %7, align 8
  %50 = getelementptr inbounds %struct.H5D_bt2_ctx_t, ptr %49, i32 0, i32 2
  %51 = load i64, ptr %50, align 8
  %52 = load ptr, ptr %4, align 8
  %53 = getelementptr inbounds i8, ptr %52, i64 %51
  store ptr %53, ptr %4, align 8
  br label %54

54:                                               ; preds = %48
  br label %55

55:                                               ; preds = %54
  %56 = load ptr, ptr %4, align 8
  %57 = load i8, ptr %56, align 1
  %58 = zext i8 %57 to i32
  %59 = and i32 %58, 255
  %60 = load ptr, ptr %8, align 8
  %61 = getelementptr inbounds %struct.H5D_chunk_rec_t, ptr %60, i32 0, i32 2
  store i32 %59, ptr %61, align 4
  %62 = load ptr, ptr %4, align 8
  %63 = getelementptr inbounds i8, ptr %62, i32 1
  store ptr %63, ptr %4, align 8
  %64 = load ptr, ptr %4, align 8
  %65 = load i8, ptr %64, align 1
  %66 = zext i8 %65 to i32
  %67 = and i32 %66, 255
  %68 = shl i32 %67, 8
  %69 = load ptr, ptr %8, align 8
  %70 = getelementptr inbounds %struct.H5D_chunk_rec_t, ptr %69, i32 0, i32 2
  %71 = load i32, ptr %70, align 4
  %72 = or i32 %71, %68
  store i32 %72, ptr %70, align 4
  %73 = load ptr, ptr %4, align 8
  %74 = getelementptr inbounds i8, ptr %73, i32 1
  store ptr %74, ptr %4, align 8
  %75 = load ptr, ptr %4, align 8
  %76 = load i8, ptr %75, align 1
  %77 = zext i8 %76 to i32
  %78 = and i32 %77, 255
  %79 = shl i32 %78, 16
  %80 = load ptr, ptr %8, align 8
  %81 = getelementptr inbounds %struct.H5D_chunk_rec_t, ptr %80, i32 0, i32 2
  %82 = load i32, ptr %81, align 4
  %83 = or i32 %82, %79
  store i32 %83, ptr %81, align 4
  %84 = load ptr, ptr %4, align 8
  %85 = getelementptr inbounds i8, ptr %84, i32 1
  store ptr %85, ptr %4, align 8
  %86 = load ptr, ptr %4, align 8
  %87 = load i8, ptr %86, align 1
  %88 = zext i8 %87 to i32
  %89 = and i32 %88, 255
  %90 = shl i32 %89, 24
  %91 = load ptr, ptr %8, align 8
  %92 = getelementptr inbounds %struct.H5D_chunk_rec_t, ptr %91, i32 0, i32 2
  %93 = load i32, ptr %92, align 4
  %94 = or i32 %93, %90
  store i32 %94, ptr %92, align 4
  %95 = load ptr, ptr %4, align 8
  %96 = getelementptr inbounds i8, ptr %95, i32 1
  store ptr %96, ptr %4, align 8
  br label %97

97:                                               ; preds = %55
  store i32 0, ptr %9, align 4
  br label %98

98:                                               ; preds = %141, %97
  %99 = load i32, ptr %9, align 4
  %100 = load ptr, ptr %7, align 8
  %101 = getelementptr inbounds %struct.H5D_bt2_ctx_t, ptr %100, i32 0, i32 3
  %102 = load i32, ptr %101, align 8
  %103 = icmp ult i32 %99, %102
  br i1 %103, label %104, label %144

104:                                              ; preds = %98
  br label %105

105:                                              ; preds = %104
  %106 = load ptr, ptr %8, align 8
  %107 = getelementptr inbounds %struct.H5D_chunk_rec_t, ptr %106, i32 0, i32 0
  %108 = load i32, ptr %9, align 4
  %109 = zext i32 %108 to i64
  %110 = getelementptr inbounds [33 x i64], ptr %107, i64 0, i64 %109
  store i64 0, ptr %110, align 8
  %111 = load ptr, ptr %4, align 8
  %112 = getelementptr inbounds i8, ptr %111, i64 8
  store ptr %112, ptr %4, align 8
  store i64 0, ptr %11, align 8
  br label %113

113:                                              ; preds = %134, %105
  %114 = load i64, ptr %11, align 8
  %115 = icmp ult i64 %114, 8
  br i1 %115, label %116, label %137

116:                                              ; preds = %113
  %117 = load ptr, ptr %8, align 8
  %118 = getelementptr inbounds %struct.H5D_chunk_rec_t, ptr %117, i32 0, i32 0
  %119 = load i32, ptr %9, align 4
  %120 = zext i32 %119 to i64
  %121 = getelementptr inbounds [33 x i64], ptr %118, i64 0, i64 %120
  %122 = load i64, ptr %121, align 8
  %123 = shl i64 %122, 8
  %124 = load ptr, ptr %4, align 8
  %125 = getelementptr inbounds i8, ptr %124, i32 -1
  store ptr %125, ptr %4, align 8
  %126 = load i8, ptr %125, align 1
  %127 = zext i8 %126 to i64
  %128 = or i64 %123, %127
  %129 = load ptr, ptr %8, align 8
  %130 = getelementptr inbounds %struct.H5D_chunk_rec_t, ptr %129, i32 0, i32 0
  %131 = load i32, ptr %9, align 4
  %132 = zext i32 %131 to i64
  %133 = getelementptr inbounds [33 x i64], ptr %130, i64 0, i64 %132
  store i64 %128, ptr %133, align 8
  br label %134

134:                                              ; preds = %116
  %135 = load i64, ptr %11, align 8
  %136 = add i64 %135, 1
  store i64 %136, ptr %11, align 8
  br label %113

137:                                              ; preds = %113
  %138 = load ptr, ptr %4, align 8
  %139 = getelementptr inbounds i8, ptr %138, i64 8
  store ptr %139, ptr %4, align 8
  br label %140

140:                                              ; preds = %137
  br label %141

141:                                              ; preds = %140
  %142 = load i32, ptr %9, align 4
  %143 = add i32 %142, 1
  store i32 %143, ptr %9, align 4
  br label %98

144:                                              ; preds = %98
  ret i32 0
}