; Function Attrs: nounwind uwtable
define internal noundef i32 @H5D__bt2_filt_decode(ptr noundef %0, ptr noundef %1, ptr nocapture noundef readonly %2) #1 {
  %4 = alloca ptr, align 8
  store ptr %0, ptr %4, align 8
  %5 = getelementptr inbounds i8, ptr %2, i64 8
  %6 = load i64, ptr %5, align 8
  %7 = getelementptr inbounds i8, ptr %1, i64 272
  call void @H5F_addr_decode_len(i64 noundef %6, ptr noundef nonnull %4, ptr noundef nonnull %7) #14
  %8 = getelementptr inbounds i8, ptr %1, i64 264
  store i32 0, ptr %8, align 8
  %9 = getelementptr inbounds i8, ptr %2, i64 16
  %10 = load i64, ptr %9, align 8
  %11 = load ptr, ptr %4, align 8
  %12 = getelementptr inbounds i8, ptr %11, i64 %10
  %.not = icmp eq i64 %10, 0
  br i1 %.not, label %._crit_edge, label %.lr.ph

.lr.ph:                                           ; preds = %3, %.lr.ph
  %13 = phi i32 [ %19, %.lr.ph ], [ 0, %3 ]
  %.02629 = phi i64 [ %20, %.lr.ph ], [ 0, %3 ]
  %14 = phi ptr [ %16, %.lr.ph ], [ %12, %3 ]
  %15 = shl i32 %13, 8
  %16 = getelementptr inbounds i8, ptr %14, i64 -1
  store ptr %16, ptr %4, align 8
  %17 = load i8, ptr %16, align 1
  %18 = zext i8 %17 to i32
  %19 = or disjoint i32 %15, %18
  store i32 %19, ptr %8, align 8
  %20 = add nuw i64 %.02629, 1
  %21 = load i64, ptr %9, align 8
  %22 = icmp ult i64 %20, %21
  br i1 %22, label %.lr.ph, label %._crit_edge

._crit_edge:                                      ; preds = %.lr.ph, %3
  %23 = phi ptr [ %12, %3 ], [ %16, %.lr.ph ]
  %.lcssa = phi i64 [ 0, %3 ], [ %21, %.lr.ph ]
  %24 = getelementptr inbounds i8, ptr %23, i64 %.lcssa
  store ptr %24, ptr %4, align 8
  %25 = load i8, ptr %24, align 1
  %26 = zext i8 %25 to i32
  %27 = getelementptr inbounds i8, ptr %1, i64 268
  store i32 %26, ptr %27, align 4
  %28 = getelementptr inbounds i8, ptr %24, i64 1
  store ptr %28, ptr %4, align 8
  %29 = load i8, ptr %28, align 1
  %30 = zext i8 %29 to i32
  %31 = shl nuw nsw i32 %30, 8
  %32 = or disjoint i32 %31, %26
  store i32 %32, ptr %27, align 4
  %33 = getelementptr inbounds i8, ptr %24, i64 2
  store ptr %33, ptr %4, align 8
  %34 = load i8, ptr %33, align 1
  %35 = zext i8 %34 to i32
  %36 = shl nuw nsw i32 %35, 16
  %37 = or disjoint i32 %36, %32
  store i32 %37, ptr %27, align 4
  %38 = getelementptr inbounds i8, ptr %24, i64 3
  store ptr %38, ptr %4, align 8
  %39 = load i8, ptr %38, align 1
  %40 = zext i8 %39 to i32
  %41 = shl nuw i32 %40, 24
  %42 = or disjoint i32 %41, %37
  store i32 %42, ptr %27, align 4
  %43 = getelementptr inbounds i8, ptr %2, i64 24
  %44 = load i32, ptr %43, align 8
  %.not41 = icmp eq i32 %44, 0
  br i1 %.not41, label %._crit_edge40, label %.lr.ph39.preheader

.lr.ph39.preheader:                               ; preds = %._crit_edge
  %45 = getelementptr inbounds i8, ptr %24, i64 4
  br label %.lr.ph39

.lr.ph39:                                         ; preds = %.lr.ph39.preheader, %57
  %indvars.iv = phi i64 [ %indvars.iv.next, %57 ], [ 0, %.lr.ph39.preheader ]
  %.promoted313436 = phi ptr [ %58, %57 ], [ %45, %.lr.ph39.preheader ]
  %46 = getelementptr inbounds [33 x i64], ptr %1, i64 0, i64 %indvars.iv
  store i64 0, ptr %46, align 8
  %47 = getelementptr inbounds i8, ptr %.promoted313436, i64 8
  br label %48

48:                                               ; preds = %.lr.ph39, %48
  %.032 = phi i64 [ 0, %.lr.ph39 ], [ %56, %48 ]
  %49 = phi i64 [ 0, %.lr.ph39 ], [ %55, %48 ]
  %50 = phi ptr [ %47, %.lr.ph39 ], [ %52, %48 ]
  %51 = shl i64 %49, 8
  %52 = getelementptr inbounds i8, ptr %50, i64 -1
  store ptr %52, ptr %4, align 8
  %53 = load i8, ptr %52, align 1
  %54 = zext i8 %53 to i64
  %55 = or disjoint i64 %51, %54
  store i64 %55, ptr %46, align 8
  %56 = add nuw nsw i64 %.032, 1
  %exitcond.not = icmp eq i64 %56, 8
  br i1 %exitcond.not, label %57, label %48

57:                                               ; preds = %48
  %58 = getelementptr inbounds i8, ptr %50, i64 7
  store ptr %58, ptr %4, align 8
  %indvars.iv.next = add nuw nsw i64 %indvars.iv, 1
  %59 = load i32, ptr %43, align 8
  %60 = zext i32 %59 to i64
  %61 = icmp ult i64 %indvars.iv.next, %60
  br i1 %61, label %.lr.ph39, label %._crit_edge40

._crit_edge40:                                    ; preds = %57, %._crit_edge
  ret i32 0
}